target datalayout = "e-m:e-p270:32:32-p271:32:32-p272:64:64-i64:64-i128:128-f80:128-n8:16:32:64-S128"
target triple = "x86_64-pc-linux-gnu"

%class.ComprDataIO = type <{ i8, [7 x i8], i64, ptr, i8, [7 x i8], i64, ptr, i64, ptr, i64, i64, i8, i8, i8, i8, [4 x i8], ptr, ptr, ptr, ptr, ptr, ptr, ptr, i32, i32, i8, i8, i8, [5 x i8], i64, i64, i64, i64, i64, i64, i64, %class.DataHash, %class.DataHash, %class.DataHash, i8, i8, [6 x i8] }>
%class.DataHash = type { i32, i32, ptr }

; Function Attrs: mustprogress nounwind uwtable
define void @_ZN11ComprDataIO4InitEv(ptr noundef nonnull align 8 dereferenceable(266) %0) #4 align 2 {
  %2 = alloca ptr, align 8
  store ptr %0, ptr %2, align 8
  %3 = load ptr, ptr %2, align 8
  %4 = getelementptr inbounds %class.ComprDataIO, ptr %3, i32 0, i32 0
  store i8 0, ptr %4, align 8
  %5 = getelementptr inbounds %class.ComprDataIO, ptr %3, i32 0, i32 4
  store i8 0, ptr %5, align 8
  %6 = getelementptr inbounds %class.ComprDataIO, ptr %3, i32 0, i32 10
  store i64 0, ptr %6, align 8
  %7 = getelementptr inbounds %class.ComprDataIO, ptr %3, i32 0, i32 11
  store i64 0, ptr %7, align 8
  %8 = getelementptr inbounds %class.ComprDataIO, ptr %3, i32 0, i32 12
  store i8 1, ptr %8, align 8
  %9 = getelementptr inbounds %class.ComprDataIO, ptr %3, i32 0, i32 13
  store i8 0, ptr %9, align 1
  %10 = getelementptr inbounds %class.ComprDataIO, ptr %3, i32 0, i32 14
  store i8 0, ptr %10, align 2
  %11 = getelementptr inbounds %class.ComprDataIO, ptr %3, i32 0, i32 15
  store i8 0, ptr %11, align 1
  %12 = getelementptr inbounds %class.ComprDataIO, ptr %3, i32 0, i32 26
  store i8 0, ptr %12, align 8
  %13 = getelementptr inbounds %class.ComprDataIO, ptr %3, i32 0, i32 27
  store i8 0, ptr %13, align 1
  %14 = getelementptr inbounds %class.ComprDataIO, ptr %3, i32 0, i32 28
  store i8 0, ptr %14, align 2
  %15 = getelementptr inbounds %class.ComprDataIO, ptr %3, i32 0, i32 17
  store ptr null, ptr %15, align 8
  %16 = getelementptr inbounds %class.ComprDataIO, ptr %3, i32 0, i32 18
  store ptr null, ptr %16, align 8
  %17 = getelementptr inbounds %class.ComprDataIO, ptr %3, i32 0, i32 9
  store ptr null, ptr %17, align 8
  %18 = getelementptr inbounds %class.ComprDataIO, ptr %3, i32 0, i32 8
  store i64 0, ptr %18, align 8
  %19 = getelementptr inbounds %class.ComprDataIO, ptr %3, i32 0, i32 19
  store ptr null, ptr %19, align 8
  %20 = getelementptr inbounds %class.ComprDataIO, ptr %3, i32 0, i32 40
  store i8 0, ptr %20, align 8
  %21 = getelementptr inbounds %class.ComprDataIO, ptr %3, i32 0, i32 41
  store i8 0, ptr %21, align 1
  %22 = getelementptr inbounds %class.ComprDataIO, ptr %3, i32 0, i32 33
  store i64 0, ptr %22, align 8
  %23 = getelementptr inbounds %class.ComprDataIO, ptr %3, i32 0, i32 32
  store i64 0, ptr %23, align 8
  %24 = getelementptr inbounds %class.ComprDataIO, ptr %3, i32 0, i32 31
  store i64 0, ptr %24, align 8
  %25 = getelementptr inbounds %class.ComprDataIO, ptr %3, i32 0, i32 30
  store i64 0, ptr %25, align 8
  %26 = getelementptr inbounds %class.ComprDataIO, ptr %3, i32 0, i32 24
  store i32 -1, ptr %26, align 8
  %27 = getelementptr inbounds %class.ComprDataIO, ptr %3, i32 0, i32 20
  store ptr null, ptr %27, align 8
  %28 = getelementptr inbounds %class.ComprDataIO, ptr %3, i32 0, i32 21
  store ptr null, ptr %28, align 8
  %29 = getelementptr inbounds %class.ComprDataIO, ptr %3, i32 0, i32 25
  store i32 0, ptr %29, align 4
  %30 = getelementptr inbounds %class.ComprDataIO, ptr %3, i32 0, i32 34
  store i64 0, ptr %30, align 8
  %31 = getelementptr inbounds %class.ComprDataIO, ptr %3, i32 0, i32 35
  store i64 0, ptr %31, align 8
  %32 = getelementptr inbounds %class.ComprDataIO, ptr %3, i32 0, i32 36
  store i64 0, ptr %32, align 8
  ret void
}