; Function Attrs: mustprogress nofree norecurse nosync nounwind willreturn memory(argmem: write) uwtable
define void @_ZN11ComprDataIO4InitEv(ptr noundef nonnull writeonly align 8 captures(none) dereferenceable(266) initializes((0, 1), (24, 25), (48, 84), (88, 128), (144, 155), (160, 216), (264, 266)) %0) local_unnamed_addr #4 align 2 {
  store i8 0, ptr %0, align 8
  %2 = getelementptr inbounds nuw i8, ptr %0, i64 24
  store i8 0, ptr %2, align 8
  %3 = getelementptr inbounds nuw i8, ptr %0, i64 64
  %4 = getelementptr inbounds nuw i8, ptr %0, i64 80
  tail call void @llvm.memset.p0.i64(ptr noundef nonnull align 8 dereferenceable(16) %3, i8 0, i64 16, i1 false)
  store i8 1, ptr %4, align 8
  %5 = getelementptr inbounds nuw i8, ptr %0, i64 81
  store i8 0, ptr %5, align 1
  %6 = getelementptr inbounds nuw i8, ptr %0, i64 82
  store i8 0, ptr %6, align 2
  %7 = getelementptr inbounds nuw i8, ptr %0, i64 83
  store i8 0, ptr %7, align 1
  %8 = getelementptr inbounds nuw i8, ptr %0, i64 152
  store i8 0, ptr %8, align 8
  %9 = getelementptr inbounds nuw i8, ptr %0, i64 153
  store i8 0, ptr %9, align 1
  %10 = getelementptr inbounds nuw i8, ptr %0, i64 154
  store i8 0, ptr %10, align 2
  %11 = getelementptr inbounds nuw i8, ptr %0, i64 88
  %12 = getelementptr inbounds nuw i8, ptr %0, i64 48
  %13 = getelementptr inbounds nuw i8, ptr %0, i64 264
  store i8 0, ptr %13, align 8
  %14 = getelementptr inbounds nuw i8, ptr %0, i64 265
  store i8 0, ptr %14, align 1
  %15 = getelementptr inbounds nuw i8, ptr %0, i64 160
  %16 = getelementptr inbounds nuw i8, ptr %0, i64 144
  tail call void @llvm.memset.p0.i64(ptr noundef nonnull align 8 dereferenceable(16) %12, i8 0, i64 16, i1 false)
  tail call void @llvm.memset.p0.i64(ptr noundef nonnull align 8 dereferenceable(24) %11, i8 0, i64 24, i1 false)
  tail call void @llvm.memset.p0.i64(ptr noundef nonnull align 8 dereferenceable(32) %15, i8 0, i64 32, i1 false)
  store i32 -1, ptr %16, align 8
  %17 = getelementptr inbounds nuw i8, ptr %0, i64 112
  %18 = getelementptr inbounds nuw i8, ptr %0, i64 148
  store i32 0, ptr %18, align 4
  %19 = getelementptr inbounds nuw i8, ptr %0, i64 192
  tail call void @llvm.memset.p0.i64(ptr noundef nonnull align 8 dereferenceable(16) %17, i8 0, i64 16, i1 false)
  tail call void @llvm.memset.p0.i64(ptr noundef nonnull align 8 dereferenceable(24) %19, i8 0, i64 24, i1 false)
  ret void
}